target datalayout = "e-m:e-p270:32:32-p271:32:32-p272:64:64-i64:64-i128:128-f80:128-n8:16:32:64-S128"
target triple = "x86_64-pc-linux-gnu"

%struct.formnode = type { i16, i16, i16, i32, i32, i32, i32, i16, i16, i16, i32, ptr, ptr, ptr, ptr, ptr, ptr, ptr, ptr, ptr, ptr, ptr }
%struct.fieldnode = type { i16, i16, i16, i16, i16, i32, i32, i32, i32, i16, i16, i16, i16, i32, i32, i32, i32, ptr, ptr, ptr, ptr, ptr, ptr, ptr, ptr }

; Function Attrs: nounwind uwtable
define internal void @Disconnect_Fields(ptr noundef %0) #0 {
  %2 = alloca ptr, align 8
  %3 = alloca ptr, align 8
  store ptr %0, ptr %2, align 8
  %4 = load ptr, ptr %2, align 8
  %5 = getelementptr inbounds %struct.formnode, ptr %4, i32 0, i32 14
  %6 = load ptr, ptr %5, align 8
  %7 = icmp ne ptr %6, null
  br i1 %7, label %8, label %53

8:                                                ; preds = %1
  %9 = load ptr, ptr %2, align 8
  %10 = getelementptr inbounds %struct.formnode, ptr %9, i32 0, i32 14
  %11 = load ptr, ptr %10, align 8
  store ptr %11, ptr %3, align 8
  br label %12

12:                                               ; preds = %28, %8
  %13 = load ptr, ptr %3, align 8
  %14 = load ptr, ptr %13, align 8
  %15 = icmp ne ptr %14, null
  br i1 %15, label %16, label %31

16:                                               ; preds = %12
  %17 = load ptr, ptr %2, align 8
  %18 = load ptr, ptr %3, align 8
  %19 = load ptr, ptr %18, align 8
  %20 = getelementptr inbounds %struct.fieldnode, ptr %19, i32 0, i32 20
  %21 = load ptr, ptr %20, align 8
  %22 = icmp eq ptr %17, %21
  br i1 %22, label %23, label %27

23:                                               ; preds = %16
  %24 = load ptr, ptr %3, align 8
  %25 = load ptr, ptr %24, align 8
  %26 = getelementptr inbounds %struct.fieldnode, ptr %25, i32 0, i32 20
  store ptr null, ptr %26, align 8
  br label %27

27:                                               ; preds = %23, %16
  br label %28

28:                                               ; preds = %27
  %29 = load ptr, ptr %3, align 8
  %30 = getelementptr inbounds ptr, ptr %29, i32 1
  store ptr %30, ptr %3, align 8
  br label %12, !llvm.loop !5

31:                                               ; preds = %12
  %32 = load ptr, ptr %2, align 8
  %33 = getelementptr inbounds %struct.formnode, ptr %32, i32 0, i32 2
  store i16 0, ptr %33, align 4
  %34 = load ptr, ptr %2, align 8
  %35 = getelementptr inbounds %struct.formnode, ptr %34, i32 0, i32 1
  store i16 0, ptr %35, align 2
  %36 = load ptr, ptr %2, align 8
  %37 = getelementptr inbounds %struct.formnode, ptr %36, i32 0, i32 8
  store i16 -1, ptr %37, align 2
  %38 = load ptr, ptr %2, align 8
  %39 = getelementptr inbounds %struct.formnode, ptr %38, i32 0, i32 7
  store i16 -1, ptr %39, align 8
  %40 = load ptr, ptr %2, align 8
  %41 = getelementptr inbounds %struct.formnode, ptr %40, i32 0, i32 14
  store ptr null, ptr %41, align 8
  %42 = load ptr, ptr %2, align 8
  %43 = getelementptr inbounds %struct.formnode, ptr %42, i32 0, i32 16
  %44 = load ptr, ptr %43, align 8
  %45 = icmp ne ptr %44, null
  br i1 %45, label %46, label %50

46:                                               ; preds = %31
  %47 = load ptr, ptr %2, align 8
  %48 = getelementptr inbounds %struct.formnode, ptr %47, i32 0, i32 16
  %49 = load ptr, ptr %48, align 8
  call void @free(ptr noundef %49) #8
  br label %50

50:                                               ; preds = %46, %31
  %51 = load ptr, ptr %2, align 8
  %52 = getelementptr inbounds %struct.formnode, ptr %51, i32 0, i32 16
  store ptr null, ptr %52, align 8
  br label %53

53:                                               ; preds = %50, %1
  ret void
}

; Function Attrs: nounwind uwtable
define dso_local i32 @free_form(ptr noundef %0) #0 {
  %2 = alloca i32, align 4
  %3 = alloca ptr, align 8
  store ptr %0, ptr %3, align 8
  %4 = load ptr, ptr %3, align 8
  %5 = icmp ne ptr %4, null
  br i1 %5, label %8, label %6

6:                                                ; preds = %1
  %7 = call ptr @__errno_location() #7
  store i32 -2, ptr %7, align 4
  store i32 -2, ptr %2, align 4
  br label %30

8:                                                ; preds = %1
  %9 = load ptr, ptr %3, align 8
  %10 = getelementptr inbounds %struct.formnode, ptr %9, i32 0, i32 0
  %11 = load i16, ptr %10, align 8
  %12 = zext i16 %11 to i32
  %13 = and i32 %12, 1
  %14 = icmp ne i32 %13, 0
  br i1 %14, label %15, label %17

15:                                               ; preds = %8
  %16 = call ptr @__errno_location() #7
  store i32 -3, ptr %16, align 4
  store i32 -3, ptr %2, align 4
  br label %30

17:                                               ; preds = %8
  %18 = load ptr, ptr %3, align 8
  call void @Disconnect_Fields(ptr noundef %18)
  %19 = load ptr, ptr %3, align 8
  %20 = getelementptr inbounds %struct.formnode, ptr %19, i32 0, i32 16
  %21 = load ptr, ptr %20, align 8
  %22 = icmp ne ptr %21, null
  br i1 %22, label %23, label %27

23:                                               ; preds = %17
  %24 = load ptr, ptr %3, align 8
  %25 = getelementptr inbounds %struct.formnode, ptr %24, i32 0, i32 16
  %26 = load ptr, ptr %25, align 8
  call void @free(ptr noundef %26) #8
  br label %27

27:                                               ; preds = %23, %17
  %28 = load ptr, ptr %3, align 8
  call void @free(ptr noundef %28) #8
  %29 = call ptr @__errno_location() #7
  store i32 0, ptr %29, align 4
  store i32 0, ptr %2, align 4
  br label %30

30:                                               ; preds = %27, %15, %6
  %31 = load i32, ptr %2, align 4
  ret i32 %31
}