; Function Attrs: nounwind uwtable
define dso_local range(i32 -3, 1) i32 @free_form(ptr noundef %0) local_unnamed_addr #0 {
  %.not = icmp eq ptr %0, null
  br i1 %.not, label %23, label %2

2:                                                ; preds = %1
  %3 = load i16, ptr %0, align 8
  %4 = and i16 %3, 1
  %.not8 = icmp eq i16 %4, 0
  br i1 %.not8, label %5, label %23

5:                                                ; preds = %2
  %6 = getelementptr inbounds nuw i8, ptr %0, i64 64
  %7 = load ptr, ptr %6, align 8
  %.not.i = icmp eq ptr %7, null
  br i1 %.not.i, label %Disconnect_Fields.exit, label %.preheader.i

.preheader.i:                                     ; preds = %5
  %8 = load ptr, ptr %7, align 8
  %.not1820.i = icmp eq ptr %8, null
  br i1 %.not1820.i, label %._crit_edge.i, label %.lr.ph.i

.lr.ph.i:                                         ; preds = %.preheader.i, %14
  %9 = phi ptr [ %16, %14 ], [ %8, %.preheader.i ]
  %.021.i = phi ptr [ %15, %14 ], [ %7, %.preheader.i ]
  %10 = getelementptr inbounds nuw i8, ptr %9, i64 80
  %11 = load ptr, ptr %10, align 8
  %12 = icmp eq ptr %0, %11
  br i1 %12, label %13, label %14

13:                                               ; preds = %.lr.ph.i
  store ptr null, ptr %10, align 8
  br label %14

14:                                               ; preds = %13, %.lr.ph.i
  %15 = getelementptr inbounds nuw i8, ptr %.021.i, i64 8
  %16 = load ptr, ptr %15, align 8
  %.not18.i = icmp eq ptr %16, null
  br i1 %.not18.i, label %._crit_edge.i, label %.lr.ph.i, !llvm.loop !5

._crit_edge.i:                                    ; preds = %14, %.preheader.i
  %17 = getelementptr inbounds nuw i8, ptr %0, i64 4
  store i16 0, ptr %17, align 4
  %18 = getelementptr inbounds nuw i8, ptr %0, i64 2
  store i16 0, ptr %18, align 2
  %19 = getelementptr inbounds nuw i8, ptr %0, i64 26
  store i16 -1, ptr %19, align 2
  %20 = getelementptr inbounds nuw i8, ptr %0, i64 24
  store i16 -1, ptr %20, align 8
  store ptr null, ptr %6, align 8
  %21 = getelementptr inbounds nuw i8, ptr %0, i64 80
  %22 = load ptr, ptr %21, align 8
  %.not19.i = icmp eq ptr %22, null
  br i1 %.not19.i, label %Disconnect_Fields.exit.thread, label %Disconnect_Fields.exit.thread.sink.split

Disconnect_Fields.exit:                           ; preds = %5
  %.phi.trans.insert = getelementptr inbounds nuw i8, ptr %0, i64 80
  %.pre = load ptr, ptr %.phi.trans.insert, align 8
  %.not9 = icmp eq ptr %.pre, null
  br i1 %.not9, label %Disconnect_Fields.exit.thread, label %Disconnect_Fields.exit.thread.sink.split

Disconnect_Fields.exit.thread.sink.split:         ; preds = %Disconnect_Fields.exit, %._crit_edge.i
  %.sink = phi ptr [ %22, %._crit_edge.i ], [ %.pre, %Disconnect_Fields.exit ]
  tail call void @free(ptr noundef nonnull %.sink) #11
  br label %Disconnect_Fields.exit.thread

Disconnect_Fields.exit.thread:                    ; preds = %Disconnect_Fields.exit.thread.sink.split, %._crit_edge.i, %Disconnect_Fields.exit
  tail call void @free(ptr noundef nonnull %0) #11
  br label %23

23:                                               ; preds = %2, %1, %Disconnect_Fields.exit.thread
  %.sink11 = phi i32 [ 0, %Disconnect_Fields.exit.thread ], [ -2, %1 ], [ -3, %2 ]
  %24 = tail call ptr @__errno_location() #10
  store i32 %.sink11, ptr %24, align 4
  ret i32 %.sink11
}